target datalayout = "e-m:e-p270:32:32-p271:32:32-p272:64:64-i64:64-i128:128-f80:128-n8:16:32:64-S128"
target triple = "x86_64-pc-linux-gnu"

@.str.24 = private unnamed_addr constant [10 x i8] c"transport\00", align 1
@.str.27 = private unnamed_addr constant [16 x i8] c"packet_received\00", align 1
@.str.28 = private unnamed_addr constant [26 x i8] c"transport:packet_received\00", align 1

; Function Attrs: nounwind uwtable
define void @ossl_qlog_event_transport_packet_received(ptr noundef %0, ptr noundef %1, i64 noundef %2, ptr noundef %3, i64 noundef %4, i64 noundef %5) #0 {
  %7 = alloca ptr, align 8
  %8 = alloca ptr, align 8
  %9 = alloca i64, align 8
  %10 = alloca ptr, align 8
  %11 = alloca i64, align 8
  %12 = alloca i64, align 8
  %13 = alloca ptr, align 8
  %14 = alloca i32, align 4
  store ptr %0, ptr %7, align 8, !tbaa !3
  store ptr %1, ptr %8, align 8, !tbaa !35
  store i64 %2, ptr %9, align 8, !tbaa !23
  store ptr %3, ptr %10, align 8, !tbaa !37
  store i64 %4, ptr %11, align 8, !tbaa !23
  store i64 %5, ptr %12, align 8, !tbaa !23
  call void @llvm.lifetime.start.p0(i64 8, ptr %13) #5
  %15 = load ptr, ptr %7, align 8, !tbaa !3
  store ptr %15, ptr %13, align 8, !tbaa !3
  call void @llvm.lifetime.start.p0(i64 4, ptr %14) #5
  store i32 6, ptr %14, align 4, !tbaa !10
  %16 = load ptr, ptr %13, align 8, !tbaa !3
  %17 = load i32, ptr %14, align 4, !tbaa !10
  %18 = call i32 @ossl_qlog_event_try_begin(ptr noundef %16, i32 noundef %17, ptr noundef @.str.24, ptr noundef @.str.27, ptr noundef @.str.28)
  %19 = icmp ne i32 %18, 0
  br i1 %19, label %20, label %28

20:                                               ; preds = %6
  %21 = load ptr, ptr %7, align 8, !tbaa !3
  %22 = load ptr, ptr %8, align 8, !tbaa !35
  %23 = load i64, ptr %9, align 8, !tbaa !23
  %24 = load ptr, ptr %10, align 8, !tbaa !37
  %25 = load i64, ptr %11, align 8, !tbaa !23
  %26 = load i64, ptr %12, align 8, !tbaa !23
  call void @log_packet(ptr noundef %21, ptr noundef %22, i64 noundef %23, ptr noundef %24, i64 noundef %25, i64 noundef %26)
  %27 = load ptr, ptr %13, align 8, !tbaa !3
  call void @ossl_qlog_event_end(ptr noundef %27)
  br label %28

28:                                               ; preds = %20, %6
  call void @llvm.lifetime.end.p0(i64 4, ptr %14) #5
  call void @llvm.lifetime.end.p0(i64 8, ptr %13) #5
  ret void
}