; Function Attrs: nounwind uwtable
define void @ossl_qlog_event_transport_packet_received(ptr noundef %0, ptr noundef %1, i64 noundef %2, ptr noundef readonly captures(none) %3, i64 noundef %4, i64 noundef %5) local_unnamed_addr #0 {
  %7 = tail call i32 @ossl_qlog_event_try_begin(ptr noundef %0, i32 noundef 6, ptr noundef nonnull @.str.24, ptr noundef nonnull @.str.27, ptr noundef nonnull @.str.28) #3
  %.not = icmp eq i32 %7, 0
  br i1 %.not, label %9, label %8

8:                                                ; preds = %6
  tail call fastcc void @log_packet(ptr noundef %0, ptr noundef %1, i64 noundef %2, ptr noundef %3, i64 noundef %4, i64 noundef %5)
  tail call void @ossl_qlog_event_end(ptr noundef %0) #3
  br label %9

9:                                                ; preds = %8, %6
  ret void
}